target datalayout = "e-m:e-p270:32:32-p271:32:32-p272:64:64-i64:64-i128:128-f80:128-n8:16:32:64-S128"
target triple = "x86_64-pc-linux-gnu"

%struct.SDL_HIDAPI_Device = type { ptr, ptr, ptr, ptr, i16, i16, i16, ptr, %struct.SDL_GUID, i32, i32, i32, i32, i16, i16, i8, i32, i32, i32, ptr, ptr, ptr, ptr, %struct.SDL_AtomicInt, i32, ptr, i8, i8, i8, ptr, i32, ptr, ptr }
%struct.SDL_GUID = type { [16 x i8] }
%struct.SDL_AtomicInt = type { i32 }
%struct.SDL_DriverGameCube_Context = type { i8, [4 x i32], [4 x i8], [24 x i8], [24 x i8], [4 x i8], [5 x i8], i8, i8 }

@.str.2 = private unnamed_addr constant [64 x i8] c"HIDAPI_DriverGameCube_InitDevice(): Couldn't initialize WUP-028\00", align 1
@.str.3 = private unnamed_addr constant [42 x i8] c"SDL_JOYSTICK_HIDAPI_GAMECUBE_RUMBLE_BRAKE\00", align 1
@.str.4 = private unnamed_addr constant [29 x i8] c"Nintendo GameCube Controller\00", align 1

; Function Attrs: nounwind uwtable
define internal void @ResetAxisRange(ptr noundef %0, i32 noundef %1) #0 {
  %3 = alloca ptr, align 8
  %4 = alloca i32, align 4
  store ptr %0, ptr %3, align 8
  store i32 %1, ptr %4, align 4
  %5 = load ptr, ptr %3, align 8
  %6 = getelementptr inbounds nuw %struct.SDL_DriverGameCube_Context, ptr %5, i32 0, i32 3
  %7 = load i32, ptr %4, align 4
  %8 = mul nsw i32 %7, 6
  %9 = sext i32 %8 to i64
  %10 = getelementptr inbounds [24 x i8], ptr %6, i64 0, i64 %9
  call void @llvm.memset.p0.i64(ptr align 1 %10, i8 40, i64 6, i1 false)
  %11 = load ptr, ptr %3, align 8
  %12 = getelementptr inbounds nuw %struct.SDL_DriverGameCube_Context, ptr %11, i32 0, i32 4
  %13 = load i32, ptr %4, align 4
  %14 = mul nsw i32 %13, 6
  %15 = sext i32 %14 to i64
  %16 = getelementptr inbounds [24 x i8], ptr %12, i64 0, i64 %15
  call void @llvm.memset.p0.i64(ptr align 1 %16, i8 -40, i64 6, i1 false)
  %17 = load ptr, ptr %3, align 8
  %18 = getelementptr inbounds nuw %struct.SDL_DriverGameCube_Context, ptr %17, i32 0, i32 3
  %19 = load i32, ptr %4, align 4
  %20 = mul nsw i32 %19, 6
  %21 = add nsw i32 %20, 4
  %22 = sext i32 %21 to i64
  %23 = getelementptr inbounds [24 x i8], ptr %18, i64 0, i64 %22
  store i8 40, ptr %23, align 1
  %24 = load ptr, ptr %3, align 8
  %25 = getelementptr inbounds nuw %struct.SDL_DriverGameCube_Context, ptr %24, i32 0, i32 3
  %26 = load i32, ptr %4, align 4
  %27 = mul nsw i32 %26, 6
  %28 = add nsw i32 %27, 5
  %29 = sext i32 %28 to i64
  %30 = getelementptr inbounds [24 x i8], ptr %25, i64 0, i64 %29
  store i8 40, ptr %30, align 1
  ret void
}

; Function Attrs: nounwind uwtable
define internal zeroext i1 @HIDAPI_DriverGameCube_InitDevice(ptr noundef %0) #0 {
  %2 = alloca i1, align 1
  %3 = alloca ptr, align 8
  %4 = alloca ptr, align 8
  %5 = alloca [37 x i8], align 16
  %6 = alloca ptr, align 8
  %7 = alloca i8, align 1
  %8 = alloca i32, align 4
  %9 = alloca i8, align 1
  %10 = alloca i8, align 1
  %11 = alloca i32, align 4
  store ptr %0, ptr %3, align 8
  call void @llvm.lifetime.start.p0(i64 8, ptr %4) #5
  call void @llvm.lifetime.start.p0(i64 37, ptr %5) #5
  call void @llvm.lifetime.start.p0(i64 8, ptr %6) #5
  call void @llvm.lifetime.start.p0(i64 1, ptr %7) #5
  call void @llvm.lifetime.start.p0(i64 4, ptr %8) #5
  call void @llvm.lifetime.start.p0(i64 1, ptr %9) #5
  store i8 19, ptr %9, align 1
  call void @llvm.lifetime.start.p0(i64 1, ptr %10) #5
  store i8 17, ptr %10, align 1
  %12 = call noalias ptr @SDL_calloc_REAL(i64 noundef 1, i64 noundef 84) #6
  store ptr %12, ptr %4, align 8
  %13 = load ptr, ptr %4, align 8
  %14 = icmp ne ptr %13, null
  br i1 %14, label %16, label %15

15:                                               ; preds = %1
  store i1 false, ptr %2, align 1
  store i32 1, ptr %11, align 4
  br label %203

16:                                               ; preds = %1
  %17 = load ptr, ptr %4, align 8
  %18 = load ptr, ptr %3, align 8
  %19 = getelementptr inbounds nuw %struct.SDL_HIDAPI_Device, ptr %18, i32 0, i32 20
  store ptr %17, ptr %19, align 8
  %20 = load ptr, ptr %4, align 8
  %21 = getelementptr inbounds nuw %struct.SDL_DriverGameCube_Context, ptr %20, i32 0, i32 1
  %22 = getelementptr inbounds [4 x i32], ptr %21, i64 0, i64 0
  store i32 0, ptr %22, align 4
  %23 = load ptr, ptr %4, align 8
  %24 = getelementptr inbounds nuw %struct.SDL_DriverGameCube_Context, ptr %23, i32 0, i32 1
  %25 = getelementptr inbounds [4 x i32], ptr %24, i64 0, i64 1
  store i32 0, ptr %25, align 4
  %26 = load ptr, ptr %4, align 8
  %27 = getelementptr inbounds nuw %struct.SDL_DriverGameCube_Context, ptr %26, i32 0, i32 1
  %28 = getelementptr inbounds [4 x i32], ptr %27, i64 0, i64 2
  store i32 0, ptr %28, align 4
  %29 = load ptr, ptr %4, align 8
  %30 = getelementptr inbounds nuw %struct.SDL_DriverGameCube_Context, ptr %29, i32 0, i32 1
  %31 = getelementptr inbounds [4 x i32], ptr %30, i64 0, i64 3
  store i32 0, ptr %31, align 4
  %32 = load i8, ptr %10, align 1
  %33 = load ptr, ptr %4, align 8
  %34 = getelementptr inbounds nuw %struct.SDL_DriverGameCube_Context, ptr %33, i32 0, i32 6
  %35 = getelementptr inbounds [5 x i8], ptr %34, i64 0, i64 0
  store i8 %32, ptr %35, align 4
  %36 = load ptr, ptr %4, align 8
  %37 = getelementptr inbounds nuw %struct.SDL_DriverGameCube_Context, ptr %36, i32 0, i32 8
  store i8 0, ptr %37, align 2
  %38 = load ptr, ptr %3, align 8
  %39 = getelementptr inbounds nuw %struct.SDL_HIDAPI_Device, ptr %38, i32 0, i32 4
  %40 = load i16, ptr %39, align 8
  %41 = zext i16 %40 to i32
  %42 = icmp ne i32 %41, 1406
  br i1 %42, label %43, label %46

43:                                               ; preds = %16
  %44 = load ptr, ptr %4, align 8
  %45 = getelementptr inbounds nuw %struct.SDL_DriverGameCube_Context, ptr %44, i32 0, i32 0
  store i8 1, ptr %45, align 4
  br label %46

46:                                               ; preds = %43, %16
  %47 = load ptr, ptr %4, align 8
  %48 = getelementptr inbounds nuw %struct.SDL_DriverGameCube_Context, ptr %47, i32 0, i32 0
  %49 = load i8, ptr %48, align 4, !range !3, !noundef !4
  %50 = trunc i8 %49 to i1
  br i1 %50, label %51, label %71

51:                                               ; preds = %46
  store i8 0, ptr %7, align 1
  br label %52

52:                                               ; preds = %67, %51
  %53 = load i8, ptr %7, align 1
  %54 = zext i8 %53 to i32
  %55 = icmp slt i32 %54, 4
  br i1 %55, label %56, label %70

56:                                               ; preds = %52
  %57 = load ptr, ptr %4, align 8
  %58 = load i8, ptr %7, align 1
  %59 = zext i8 %58 to i32
  call void @ResetAxisRange(ptr noundef %57, i32 noundef %59)
  %60 = load ptr, ptr %3, align 8
  %61 = load ptr, ptr %4, align 8
  %62 = getelementptr inbounds nuw %struct.SDL_DriverGameCube_Context, ptr %61, i32 0, i32 1
  %63 = load i8, ptr %7, align 1
  %64 = zext i8 %63 to i64
  %65 = getelementptr inbounds nuw [4 x i32], ptr %62, i64 0, i64 %64
  %66 = call zeroext i1 @HIDAPI_JoystickConnected(ptr noundef %60, ptr noundef %65)
  br label %67

67:                                               ; preds = %56
  %68 = load i8, ptr %7, align 1
  %69 = add i8 %68, 1
  store i8 %69, ptr %7, align 1
  br label %52, !llvm.loop !5

70:                                               ; preds = %52
  br label %199

71:                                               ; preds = %46
  %72 = load ptr, ptr %3, align 8
  %73 = getelementptr inbounds nuw %struct.SDL_HIDAPI_Device, ptr %72, i32 0, i32 22
  %74 = load ptr, ptr %73, align 8
  %75 = call i32 @SDL_hid_write_REAL(ptr noundef %74, ptr noundef %9, i64 noundef 1)
  %76 = sext i32 %75 to i64
  %77 = icmp ne i64 %76, 1
  br i1 %77, label %78, label %79

78:                                               ; preds = %71
  call void (i32, ptr, ...) @SDL_LogDebug_REAL(i32 noundef 7, ptr noundef @.str.2)
  store i1 false, ptr %2, align 1
  store i32 1, ptr %11, align 4
  br label %203

79:                                               ; preds = %71
  call void @SDL_Delay_REAL(i32 noundef 10)
  br label %80

80:                                               ; preds = %197, %95, %79
  %81 = load ptr, ptr %3, align 8
  %82 = getelementptr inbounds nuw %struct.SDL_HIDAPI_Device, ptr %81, i32 0, i32 22
  %83 = load ptr, ptr %82, align 8
  %84 = getelementptr inbounds [37 x i8], ptr %5, i64 0, i64 0
  %85 = call i32 @SDL_hid_read_timeout_REAL(ptr noundef %83, ptr noundef %84, i64 noundef 37, i32 noundef 0)
  store i32 %85, ptr %8, align 4
  %86 = icmp sgt i32 %85, 0
  br i1 %86, label %87, label %198

87:                                               ; preds = %80
  %88 = load i32, ptr %8, align 4
  %89 = icmp slt i32 %88, 37
  br i1 %89, label %95, label %90

90:                                               ; preds = %87
  %91 = getelementptr inbounds [37 x i8], ptr %5, i64 0, i64 0
  %92 = load i8, ptr %91, align 16
  %93 = zext i8 %92 to i32
  %94 = icmp ne i32 %93, 33
  br i1 %94, label %95, label %96

95:                                               ; preds = %90, %87
  br label %80, !llvm.loop !7

96:                                               ; preds = %90
  %97 = getelementptr inbounds [37 x i8], ptr %5, i64 0, i64 0
  %98 = getelementptr inbounds i8, ptr %97, i64 1
  store ptr %98, ptr %6, align 8
  store i8 0, ptr %7, align 1
  br label %99

99:                                               ; preds = %190, %96
  %100 = load i8, ptr %7, align 1
  %101 = zext i8 %100 to i32
  %102 = icmp slt i32 %101, 4
  br i1 %102, label %103, label %197

103:                                              ; preds = %99
  %104 = load ptr, ptr %6, align 8
  %105 = getelementptr inbounds i8, ptr %104, i64 0
  %106 = load i8, ptr %105, align 1
  %107 = zext i8 %106 to i32
  %108 = and i32 %107, 32
  %109 = icmp ne i32 %108, 0
  %110 = zext i1 %109 to i32
  %111 = trunc i32 %110 to i8
  %112 = load ptr, ptr %4, align 8
  %113 = getelementptr inbounds nuw %struct.SDL_DriverGameCube_Context, ptr %112, i32 0, i32 2
  %114 = load i8, ptr %7, align 1
  %115 = zext i8 %114 to i64
  %116 = getelementptr inbounds nuw [4 x i8], ptr %113, i64 0, i64 %115
  store i8 %111, ptr %116, align 1
  %117 = load ptr, ptr %6, align 8
  %118 = getelementptr inbounds i8, ptr %117, i64 0
  %119 = load i8, ptr %118, align 1
  %120 = zext i8 %119 to i32
  %121 = and i32 %120, 4
  %122 = icmp ne i32 %121, 0
  br i1 %122, label %123, label %132

123:                                              ; preds = %103
  %124 = load ptr, ptr %4, align 8
  %125 = getelementptr inbounds nuw %struct.SDL_DriverGameCube_Context, ptr %124, i32 0, i32 2
  %126 = load i8, ptr %7, align 1
  %127 = zext i8 %126 to i64
  %128 = getelementptr inbounds nuw [4 x i8], ptr %125, i64 0, i64 %127
  %129 = load i8, ptr %128, align 1
  %130 = icmp ne i8 %129, 0
  %131 = xor i1 %130, true
  br label %132

132:                                              ; preds = %123, %103
  %133 = phi i1 [ false, %103 ], [ %131, %123 ]
  %134 = zext i1 %133 to i32
  %135 = trunc i32 %134 to i8
  %136 = load ptr, ptr %4, align 8
  %137 = getelementptr inbounds nuw %struct.SDL_DriverGameCube_Context, ptr %136, i32 0, i32 5
  %138 = load i8, ptr %7, align 1
  %139 = zext i8 %138 to i64
  %140 = getelementptr inbounds nuw [4 x i8], ptr %137, i64 0, i64 %139
  store i8 %135, ptr %140, align 1
  %141 = load ptr, ptr %6, align 8
  %142 = getelementptr inbounds i8, ptr %141, i64 0
  %143 = load i8, ptr %142, align 1
  %144 = zext i8 %143 to i32
  %145 = and i32 %144, 48
  %146 = icmp ne i32 %145, 0
  br i1 %146, label %147, label %167

147:                                              ; preds = %132
  %148 = load ptr, ptr %4, align 8
  %149 = getelementptr inbounds nuw %struct.SDL_DriverGameCube_Context, ptr %148, i32 0, i32 1
  %150 = load i8, ptr %7, align 1
  %151 = zext i8 %150 to i64
  %152 = getelementptr inbounds nuw [4 x i32], ptr %149, i64 0, i64 %151
  %153 = load i32, ptr %152, align 4
  %154 = icmp eq i32 %153, 0
  br i1 %154, label %155, label %166

155:                                              ; preds = %147
  %156 = load ptr, ptr %4, align 8
  %157 = load i8, ptr %7, align 1
  %158 = zext i8 %157 to i32
  call void @ResetAxisRange(ptr noundef %156, i32 noundef %158)
  %159 = load ptr, ptr %3, align 8
  %160 = load ptr, ptr %4, align 8
  %161 = getelementptr inbounds nuw %struct.SDL_DriverGameCube_Context, ptr %160, i32 0, i32 1
  %162 = load i8, ptr %7, align 1
  %163 = zext i8 %162 to i64
  %164 = getelementptr inbounds nuw [4 x i32], ptr %161, i64 0, i64 %163
  %165 = call zeroext i1 @HIDAPI_JoystickConnected(ptr noundef %159, ptr noundef %164)
  br label %166

166:                                              ; preds = %155, %147
  br label %189

167:                                              ; preds = %132
  %168 = load ptr, ptr %4, align 8
  %169 = getelementptr inbounds nuw %struct.SDL_DriverGameCube_Context, ptr %168, i32 0, i32 1
  %170 = load i8, ptr %7, align 1
  %171 = zext i8 %170 to i64
  %172 = getelementptr inbounds nuw [4 x i32], ptr %169, i64 0, i64 %171
  %173 = load i32, ptr %172, align 4
  %174 = icmp ne i32 %173, 0
  br i1 %174, label %175, label %188

175:                                              ; preds = %167
  %176 = load ptr, ptr %3, align 8
  %177 = load ptr, ptr %4, align 8
  %178 = getelementptr inbounds nuw %struct.SDL_DriverGameCube_Context, ptr %177, i32 0, i32 1
  %179 = load i8, ptr %7, align 1
  %180 = zext i8 %179 to i64
  %181 = getelementptr inbounds nuw [4 x i32], ptr %178, i64 0, i64 %180
  %182 = load i32, ptr %181, align 4
  call void @HIDAPI_JoystickDisconnected(ptr noundef %176, i32 noundef %182)
  %183 = load ptr, ptr %4, align 8
  %184 = getelementptr inbounds nuw %struct.SDL_DriverGameCube_Context, ptr %183, i32 0, i32 1
  %185 = load i8, ptr %7, align 1
  %186 = zext i8 %185 to i64
  %187 = getelementptr inbounds nuw [4 x i32], ptr %184, i64 0, i64 %186
  store i32 0, ptr %187, align 4
  br label %188

188:                                              ; preds = %175, %167
  br label %190

189:                                              ; preds = %166
  br label %190

190:                                              ; preds = %189, %188
  %191 = load i8, ptr %7, align 1
  %192 = zext i8 %191 to i32
  %193 = add nsw i32 %192, 1
  %194 = trunc i32 %193 to i8
  store i8 %194, ptr %7, align 1
  %195 = load ptr, ptr %6, align 8
  %196 = getelementptr inbounds i8, ptr %195, i64 9
  store ptr %196, ptr %6, align 8
  br label %99, !llvm.loop !8

197:                                              ; preds = %99
  br label %80, !llvm.loop !7

198:                                              ; preds = %80
  br label %199

199:                                              ; preds = %198, %70
  %200 = load ptr, ptr %4, align 8
  %201 = call zeroext i1 @SDL_AddHintCallback_REAL(ptr noundef @.str.3, ptr noundef @SDL_JoystickGameCubeRumbleBrakeHintChanged, ptr noundef %200)
  %202 = load ptr, ptr %3, align 8
  call void @HIDAPI_SetDeviceName(ptr noundef %202, ptr noundef @.str.4)
  store i1 true, ptr %2, align 1
  store i32 1, ptr %11, align 4
  br label %203

203:                                              ; preds = %199, %78, %15
  call void @llvm.lifetime.end.p0(i64 1, ptr %10) #5
  call void @llvm.lifetime.end.p0(i64 1, ptr %9) #5
  call void @llvm.lifetime.end.p0(i64 4, ptr %8) #5
  call void @llvm.lifetime.end.p0(i64 1, ptr %7) #5
  call void @llvm.lifetime.end.p0(i64 8, ptr %6) #5
  call void @llvm.lifetime.end.p0(i64 37, ptr %5) #5
  call void @llvm.lifetime.end.p0(i64 8, ptr %4) #5
  %204 = load i1, ptr %2, align 1
  ret i1 %204
}