; Function Attrs: nounwind uwtable
define internal noundef zeroext i1 @HIDAPI_DriverGameCube_InitDevice(ptr noundef %0) #0 {
  %2 = alloca [37 x i8], align 16
  %3 = alloca i8, align 1
  call void @llvm.lifetime.start.p0(i64 37, ptr nonnull %2) #7
  call void @llvm.lifetime.start.p0(i64 1, ptr nonnull %3) #7
  store i8 19, ptr %3, align 1
  %4 = tail call noalias dereferenceable_or_null(84) ptr @SDL_calloc_REAL(i64 noundef 1, i64 noundef 84) #8
  %.not = icmp eq ptr %4, null
  br i1 %.not, label %76, label %5

5:                                                ; preds = %1
  %6 = getelementptr inbounds nuw i8, ptr %0, i64 112
  store ptr %4, ptr %6, align 8
  %7 = getelementptr inbounds nuw i8, ptr %4, i64 4
  %8 = getelementptr inbounds nuw i8, ptr %4, i64 76
  tail call void @llvm.memset.p0.i64(ptr noundef nonnull align 4 dereferenceable(16) %7, i8 0, i64 16, i1 false)
  store i8 17, ptr %8, align 4
  %9 = getelementptr inbounds nuw i8, ptr %4, i64 82
  store i8 0, ptr %9, align 2
  %10 = getelementptr inbounds nuw i8, ptr %0, i64 32
  %11 = load i16, ptr %10, align 8
  %.not61 = icmp eq i16 %11, 1406
  br i1 %.not61, label %12, label %.thread

.thread:                                          ; preds = %5
  store i8 1, ptr %4, align 4
  br label %.preheader

12:                                               ; preds = %5
  %.pre = load i8, ptr %4, align 4, !range !3
  %13 = trunc nuw i8 %.pre to i1
  br i1 %13, label %.preheader, label %28

.preheader:                                       ; preds = %.thread, %12
  %14 = getelementptr inbounds nuw i8, ptr %4, i64 24
  %15 = getelementptr inbounds nuw i8, ptr %4, i64 48
  br label %16

16:                                               ; preds = %.preheader, %16
  %indvars.iv77 = phi i64 [ 0, %.preheader ], [ %indvars.iv.next78, %16 ]
  %17 = mul nuw nsw i64 %indvars.iv77, 6
  %18 = getelementptr inbounds nuw [24 x i8], ptr %14, i64 0, i64 %17
  tail call void @llvm.memset.p0.i64(ptr noundef nonnull align 1 dereferenceable(6) %18, i8 40, i64 6, i1 false)
  %19 = getelementptr inbounds nuw [24 x i8], ptr %15, i64 0, i64 %17
  tail call void @llvm.memset.p0.i64(ptr noundef nonnull align 1 dereferenceable(6) %19, i8 -40, i64 6, i1 false)
  %20 = add nuw i64 %17, 4
  %21 = and i64 %20, 4294967294
  %22 = getelementptr inbounds nuw [24 x i8], ptr %14, i64 0, i64 %21
  store i8 40, ptr %22, align 1
  %23 = add nuw i64 %17, 5
  %24 = and i64 %23, 4294967295
  %25 = getelementptr inbounds nuw [24 x i8], ptr %14, i64 0, i64 %24
  store i8 40, ptr %25, align 1
  %26 = getelementptr inbounds nuw [4 x i32], ptr %7, i64 0, i64 %indvars.iv77
  %27 = tail call zeroext i1 @HIDAPI_JoystickConnected(ptr noundef nonnull %0, ptr noundef nonnull %26) #7
  %indvars.iv.next78 = add nuw nsw i64 %indvars.iv77, 1
  %exitcond81.not = icmp eq i64 %indvars.iv.next78, 4
  br i1 %exitcond81.not, label %.loopexit, label %16, !llvm.loop !4

28:                                               ; preds = %12
  %29 = getelementptr inbounds nuw i8, ptr %0, i64 128
  %30 = load ptr, ptr %29, align 8
  %31 = call i32 @SDL_hid_write_REAL(ptr noundef %30, ptr noundef nonnull %3, i64 noundef 1) #7
  %.not62 = icmp eq i32 %31, 1
  br i1 %.not62, label %33, label %32

32:                                               ; preds = %28
  call void (i32, ptr, ...) @SDL_LogDebug_REAL(i32 noundef 7, ptr noundef nonnull @.str.2) #7
  br label %76

33:                                               ; preds = %28
  call void @SDL_Delay_REAL(i32 noundef 10) #7
  %34 = load ptr, ptr %29, align 8
  %35 = call i32 @SDL_hid_read_timeout_REAL(ptr noundef %34, ptr noundef nonnull %2, i64 noundef 37, i32 noundef 0) #7
  %36 = icmp sgt i32 %35, 0
  br i1 %36, label %.lr.ph, label %.loopexit

.lr.ph:                                           ; preds = %33
  %37 = getelementptr inbounds nuw i8, ptr %2, i64 1
  %38 = getelementptr inbounds nuw i8, ptr %4, i64 20
  %39 = getelementptr inbounds nuw i8, ptr %4, i64 72
  %40 = getelementptr inbounds nuw i8, ptr %4, i64 24
  %41 = getelementptr inbounds nuw i8, ptr %4, i64 48
  br label %42

42:                                               ; preds = %.lr.ph, %.backedge
  %43 = phi i32 [ %35, %.lr.ph ], [ %48, %.backedge ]
  %44 = icmp samesign ult i32 %43, 37
  %45 = load i8, ptr %2, align 16
  %46 = icmp ne i8 %45, 33
  %or.cond = select i1 %44, i1 true, i1 %46
  br i1 %or.cond, label %.backedge, label %.preheader73

.backedge:                                        ; preds = %73, %42
  %47 = load ptr, ptr %29, align 8
  %48 = call i32 @SDL_hid_read_timeout_REAL(ptr noundef %47, ptr noundef nonnull %2, i64 noundef 37, i32 noundef 0) #7
  %49 = icmp sgt i32 %48, 0
  br i1 %49, label %42, label %.loopexit, !llvm.loop !6

.preheader73:                                     ; preds = %42, %73
  %indvars.iv = phi i64 [ %indvars.iv.next, %73 ], [ 0, %42 ]
  %.05471 = phi ptr [ %74, %73 ], [ %37, %42 ]
  %50 = load i8, ptr %.05471, align 1
  %51 = lshr i8 %50, 5
  %.lobit = and i8 %51, 1
  %52 = getelementptr inbounds nuw [4 x i8], ptr %38, i64 0, i64 %indvars.iv
  store i8 %.lobit, ptr %52, align 1
  %53 = and i8 %50, 4
  %.not63 = icmp eq i8 %53, 0
  %54 = xor i8 %.lobit, 1
  %spec.select = select i1 %.not63, i8 0, i8 %54
  %55 = getelementptr inbounds nuw [4 x i8], ptr %39, i64 0, i64 %indvars.iv
  store i8 %spec.select, ptr %55, align 1
  %56 = and i8 %50, 48
  %.not65 = icmp eq i8 %56, 0
  %57 = getelementptr inbounds nuw [4 x i32], ptr %7, i64 0, i64 %indvars.iv
  %58 = load i32, ptr %57, align 4
  %.not66 = icmp eq i32 %58, 0
  br i1 %.not65, label %71, label %59

59:                                               ; preds = %.preheader73
  br i1 %.not66, label %60, label %73

60:                                               ; preds = %59
  %61 = mul nuw nsw i64 %indvars.iv, 6
  %62 = getelementptr inbounds nuw [24 x i8], ptr %40, i64 0, i64 %61
  call void @llvm.memset.p0.i64(ptr noundef nonnull align 1 dereferenceable(6) %62, i8 40, i64 6, i1 false)
  %63 = getelementptr inbounds nuw [24 x i8], ptr %41, i64 0, i64 %61
  call void @llvm.memset.p0.i64(ptr noundef nonnull align 1 dereferenceable(6) %63, i8 -40, i64 6, i1 false)
  %64 = add nuw i64 %61, 4
  %65 = and i64 %64, 4294967294
  %66 = getelementptr inbounds nuw [24 x i8], ptr %40, i64 0, i64 %65
  store i8 40, ptr %66, align 1
  %67 = add nuw i64 %61, 5
  %68 = and i64 %67, 4294967295
  %69 = getelementptr inbounds nuw [24 x i8], ptr %40, i64 0, i64 %68
  store i8 40, ptr %69, align 1
  %70 = call zeroext i1 @HIDAPI_JoystickConnected(ptr noundef %0, ptr noundef nonnull %57) #7
  br label %73

71:                                               ; preds = %.preheader73
  br i1 %.not66, label %73, label %72

72:                                               ; preds = %71
  call void @HIDAPI_JoystickDisconnected(ptr noundef %0, i32 noundef %58) #7
  store i32 0, ptr %57, align 4
  br label %73

73:                                               ; preds = %60, %59, %71, %72
  %indvars.iv.next = add nuw nsw i64 %indvars.iv, 1
  %74 = getelementptr inbounds nuw i8, ptr %.05471, i64 9
  %exitcond.not = icmp eq i64 %indvars.iv.next, 4
  br i1 %exitcond.not, label %.backedge, label %.preheader73, !llvm.loop !7

.loopexit:                                        ; preds = %.backedge, %16, %33
  %75 = call zeroext i1 @SDL_AddHintCallback_REAL(ptr noundef nonnull @.str.3, ptr noundef nonnull @SDL_JoystickGameCubeRumbleBrakeHintChanged, ptr noundef nonnull %4) #7
  call void @HIDAPI_SetDeviceName(ptr noundef nonnull %0, ptr noundef nonnull @.str.4) #7
  br label %76

76:                                               ; preds = %1, %.loopexit, %32
  %.0 = phi i1 [ true, %.loopexit ], [ false, %32 ], [ false, %1 ]
  call void @llvm.lifetime.end.p0(i64 1, ptr nonnull %3) #7
  call void @llvm.lifetime.end.p0(i64 37, ptr nonnull %2) #7
  ret i1 %.0
}